; Function Attrs: mustprogress uwtable
define noundef ptr @_ZN8proxygen16SimpleController28getTransactionTimeoutHandlerEPNS_15HTTPTransactionERKN5folly13SocketAddressE(ptr nocapture noundef nonnull readonly align 8 dereferenceable(16) %this, ptr nocapture readnone %0, ptr noundef nonnull align 8 dereferenceable(27) %localAddress) unnamed_addr #4 align 2 personality ptr @__gxx_personality_v0 {
entry:
  %ref.tmp = alloca %"class.std::__cxx11::basic_string", align 8
  %ref.tmp3 = alloca %"class.std::allocator", align 1
  %acceptor_ = getelementptr inbounds i8, ptr %this, i64 8
  %1 = load ptr, ptr %acceptor_, align 8
  %tobool.not = icmp eq ptr %1, null
  br i1 %tobool.not, label %cond.end, label %cond.true

cond.true:                                        ; preds = %entry
  %vtable = load ptr, ptr %1, align 8
  %vfn = getelementptr inbounds i8, ptr %vtable, i64 384
  %2 = load ptr, ptr %vfn, align 8
  %call = tail call noundef ptr %2(ptr noundef nonnull align 8 dereferenceable(1928) %1, ptr noundef nonnull align 8 dereferenceable(27) %localAddress)
  br label %cond.end

cond.end:                                         ; preds = %entry, %cond.true
  %cond = phi ptr [ %call, %cond.true ], [ null, %entry ]
  call void @_ZNSaIcEC1Ev(ptr noundef nonnull align 1 dereferenceable(1) %ref.tmp3) #14
  %call.i2 = invoke noundef ptr @_ZNSt7__cxx1112basic_stringIcSt11char_traitsIcESaIcEE13_M_local_dataEv(ptr noundef nonnull align 8 dereferenceable(32) %ref.tmp)
          to label %call.i.noexc unwind label %lpad

call.i.noexc:                                     ; preds = %cond.end
  invoke void @_ZNSt7__cxx1112basic_stringIcSt11char_traitsIcESaIcEE12_Alloc_hiderC1EPcRKS3_(ptr noundef nonnull align 8 dereferenceable(8) %ref.tmp, ptr noundef %call.i2, ptr noundef nonnull align 1 dereferenceable(1) %ref.tmp3)
          to label %.noexc unwind label %lpad

.noexc:                                           ; preds = %call.i.noexc
  invoke void @_ZNSt7__cxx1112basic_stringIcSt11char_traitsIcESaIcEE12_M_constructIPKcEEvT_S8_St20forward_iterator_tag(ptr noundef nonnull align 8 dereferenceable(32) %ref.tmp, ptr noundef nonnull @.str.6, ptr noundef nonnull getelementptr inbounds ([15 x i8], ptr @.str.6, i64 0, i64 14))
          to label %invoke.cont unwind label %lpad.i

lpad.i:                                           ; preds = %.noexc
  %3 = landingpad { ptr, i32 }
          cleanup
  call void @_ZNSaIcED2Ev(ptr noundef nonnull align 1 dereferenceable(1) %ref.tmp) #14
  br label %ehcleanup

invoke.cont:                                      ; preds = %.noexc
  %call.i5 = invoke noalias noundef nonnull dereferenceable(64) ptr @_Znwm(i64 noundef 64) #15
          to label %call.i.noexc4 unwind label %lpad4

call.i.noexc4:                                    ; preds = %invoke.cont
  invoke void @_ZN8proxygen25HTTPDirectResponseHandlerC1EjRKNSt7__cxx1112basic_stringIcSt11char_traitsIcESaIcEEEPKNS_13HTTPErrorPageE(ptr noundef nonnull align 8 dereferenceable(61) %call.i5, i32 noundef 408, ptr noundef nonnull align 8 dereferenceable(32) %ref.tmp, ptr noundef %cond)
          to label %invoke.cont5 unwind label %lpad.i3

lpad.i3:                                          ; preds = %call.i.noexc4
  %4 = landingpad { ptr, i32 }
          cleanup
  call void @_ZdlPv(ptr noundef nonnull %call.i5) #16
  br label %lpad4.body

invoke.cont5:                                     ; preds = %call.i.noexc4
  call void @_ZNSt7__cxx1112basic_stringIcSt11char_traitsIcESaIcEED1Ev(ptr noundef nonnull align 8 dereferenceable(32) %ref.tmp) #14
  call void @_ZNSaIcED1Ev(ptr noundef nonnull align 1 dereferenceable(1) %ref.tmp3) #14
  ret ptr %call.i5

lpad:                                             ; preds = %call.i.noexc, %cond.end
  %5 = landingpad { ptr, i32 }
          cleanup
  br label %ehcleanup

lpad4:                                            ; preds = %invoke.cont
  %6 = landingpad { ptr, i32 }
          cleanup
  br label %lpad4.body

lpad4.body:                                       ; preds = %lpad.i3, %lpad4
  %eh.lpad-body6 = phi { ptr, i32 } [ %6, %lpad4 ], [ %4, %lpad.i3 ]
  call void @_ZNSt7__cxx1112basic_stringIcSt11char_traitsIcESaIcEED1Ev(ptr noundef nonnull align 8 dereferenceable(32) %ref.tmp) #14
  br label %ehcleanup

ehcleanup:                                        ; preds = %lpad, %lpad.i, %lpad4.body
  %.pn = phi { ptr, i32 } [ %eh.lpad-body6, %lpad4.body ], [ %5, %lpad ], [ %3, %lpad.i ]
  call void @_ZNSaIcED1Ev(ptr noundef nonnull align 1 dereferenceable(1) %ref.tmp3) #14
  resume { ptr, i32 } %.pn
}